target datalayout = "e-m:e-p270:32:32-p271:32:32-p272:64:64-i64:64-i128:128-f80:128-n8:16:32:64-S128"
target triple = "x86_64-pc-linux-gnu"

%struct.spawn_args = type { i64, %struct.anon.37 }
%struct.anon.37 = type { ptr, i64 }

; Function Attrs: noinline nounwind sspstrong uwtable
define internal i32 @rb_execarg_spawn(i64 noundef %0, ptr noundef %1, i64 noundef %2) #24 {
  %4 = alloca i64, align 8
  %5 = alloca ptr, align 8
  %6 = alloca i64, align 8
  %7 = alloca %struct.spawn_args, align 8
  %8 = alloca i32, align 4
  store i64 %0, ptr %4, align 8, !tbaa !35
  store ptr %1, ptr %5, align 8, !tbaa !64
  store i64 %2, ptr %6, align 8, !tbaa !35
  call void @llvm.lifetime.start.p0(i64 24, ptr %7) #27
  %9 = load i64, ptr %4, align 8, !tbaa !35
  %10 = getelementptr inbounds nuw %struct.spawn_args, ptr %7, i32 0, i32 0
  store i64 %9, ptr %10, align 8, !tbaa !282
  %11 = load ptr, ptr %5, align 8, !tbaa !64
  %12 = getelementptr inbounds nuw %struct.spawn_args, ptr %7, i32 0, i32 1
  %13 = getelementptr inbounds nuw %struct.anon.37, ptr %12, i32 0, i32 0
  store ptr %11, ptr %13, align 8, !tbaa !285
  %14 = load i64, ptr %6, align 8, !tbaa !35
  %15 = getelementptr inbounds nuw %struct.spawn_args, ptr %7, i32 0, i32 1
  %16 = getelementptr inbounds nuw %struct.anon.37, ptr %15, i32 0, i32 1
  store i64 %14, ptr %16, align 8, !tbaa !286
  call void @llvm.lifetime.start.p0(i64 4, ptr %8) #27
  %17 = ptrtoint ptr %7 to i64
  %18 = load i64, ptr %4, align 8, !tbaa !35
  %19 = call i64 @rb_ensure(ptr noundef @do_spawn_process, i64 noundef %17, ptr noundef @execarg_parent_end, i64 noundef %18)
  %20 = trunc i64 %19 to i32
  store i32 %20, ptr %8, align 4, !tbaa !34
  %21 = load i32, ptr %8, align 4, !tbaa !34
  call void @llvm.lifetime.end.p0(i64 4, ptr %8) #27
  call void @llvm.lifetime.end.p0(i64 24, ptr %7) #27
  ret i32 %21
}