; Function Attrs: noinline nounwind sspstrong uwtable
define internal fastcc i32 @rb_execarg_spawn(i64 noundef %0, ptr noundef %1, i64 noundef %2) unnamed_addr #21 {
  %4 = alloca %struct.spawn_args, align 8
  call void @llvm.lifetime.start.p0(i64 24, ptr nonnull %4) #27
  store i64 %0, ptr %4, align 8, !tbaa !316
  %5 = getelementptr inbounds nuw i8, ptr %4, i64 8
  store ptr %1, ptr %5, align 8, !tbaa !319
  %6 = getelementptr inbounds nuw i8, ptr %4, i64 16
  store i64 %2, ptr %6, align 8, !tbaa !320
  %7 = ptrtoint ptr %4 to i64
  %8 = call i64 @rb_ensure(ptr noundef nonnull @do_spawn_process, i64 noundef %7, ptr noundef nonnull @execarg_parent_end, i64 noundef %0) #27
  %9 = trunc i64 %8 to i32
  call void @llvm.lifetime.end.p0(i64 24, ptr nonnull %4) #27
  ret i32 %9
}